target datalayout = "e-m:e-p270:32:32-p271:32:32-p272:64:64-i64:64-i128:128-f80:128-n8:16:32:64-S128"
target triple = "x86_64-pc-linux-gnu"

%"class.llvm::Value" = type { i8, i8, i16, i32, ptr, ptr }
%"class.llvm::DebugLoc" = type { %"class.llvm::TypedTrackingMDRef" }
%"class.llvm::TypedTrackingMDRef" = type { %"class.llvm::TrackingMDRef" }
%"class.llvm::TrackingMDRef" = type { ptr }
%"class.llvm::BranchProbability" = type { i32 }
%"struct.llvm::SwitchCG::CaseBlock" = type <{ %union.anon.426, ptr, ptr, ptr, ptr, ptr, ptr, %"class.llvm::SDLoc", %"class.llvm::DebugLoc", %"class.llvm::BranchProbability", %"class.llvm::BranchProbability", i8, [7 x i8] }>
%union.anon.426 = type { %"struct.llvm::SwitchCG::CaseBlock::PredInfoPair" }
%"struct.llvm::SwitchCG::CaseBlock::PredInfoPair" = type { i32, i8 }
%"class.llvm::SDLoc" = type <{ %"class.llvm::DebugLoc", i32, [4 x i8] }>
%"struct.std::_Vector_base.428" = type { %"struct.std::_Vector_base<llvm::SwitchCG::CaseBlock, std::allocator<llvm::SwitchCG::CaseBlock>>::_Vector_impl" }
%"struct.std::_Vector_base<llvm::SwitchCG::CaseBlock, std::allocator<llvm::SwitchCG::CaseBlock>>::_Vector_impl" = type { %"struct.std::_Vector_base<llvm::SwitchCG::CaseBlock, std::allocator<llvm::SwitchCG::CaseBlock>>::_Vector_impl_data" }
%"struct.std::_Vector_base<llvm::SwitchCG::CaseBlock, std::allocator<llvm::SwitchCG::CaseBlock>>::_Vector_impl_data" = type { ptr, ptr, ptr }

; Function Attrs: mustprogress nounwind uwtable
define linkonce_odr hidden noundef i32 @_ZNK4llvm5Value10getValueIDEv(ptr noundef nonnull align 8 dereferenceable(24) %0) #1 comdat align 2 {
  %2 = alloca ptr, align 8
  store ptr %0, ptr %2, align 8
  %3 = load ptr, ptr %2, align 8
  %4 = getelementptr inbounds nuw %"class.llvm::Value", ptr %3, i32 0, i32 0
  %5 = load i8, ptr %4, align 8
  %6 = zext i8 %5 to i32
  ret i32 %6
}

; Function Attrs: mustprogress nounwind uwtable
define linkonce_odr hidden noundef zeroext i1 @_ZN4llvm8isa_implINS_8ConstantENS_5ValueEvE4doitERKS2_(ptr noundef nonnull align 8 dereferenceable(24) %0) #1 comdat align 2 {
  %2 = alloca ptr, align 8
  store ptr %0, ptr %2, align 8
  %3 = load ptr, ptr %2, align 8
  %4 = call noundef i32 @_ZNK4llvm5Value10getValueIDEv(ptr noundef nonnull align 8 dereferenceable(24) %3)
  %5 = icmp ule i32 %4, 21
  ret i1 %5
}

; Function Attrs: mustprogress nounwind uwtable
define linkonce_odr hidden noundef zeroext i1 @_ZN4llvm11isa_impl_clINS_8ConstantEPKNS_5ValueEE4doitES4_(ptr noundef %0) #1 comdat align 2 {
  %2 = alloca ptr, align 8
  store ptr %0, ptr %2, align 8
  %3 = load ptr, ptr %2, align 8
  %4 = call noundef zeroext i1 @_ZN4llvm8isa_implINS_8ConstantENS_5ValueEvE4doitERKS2_(ptr noundef nonnull align 8 dereferenceable(24) %3)
  ret i1 %4
}

; Function Attrs: mustprogress nounwind uwtable
define linkonce_odr hidden noundef zeroext i1 @_ZN4llvm13isa_impl_wrapINS_8ConstantEPKNS_5ValueES4_E4doitERKS4_(ptr noundef nonnull align 8 dereferenceable(8) %0) #1 comdat align 2 {
  %2 = alloca ptr, align 8
  store ptr %0, ptr %2, align 8
  %3 = load ptr, ptr %2, align 8
  %4 = load ptr, ptr %3, align 8
  %5 = call noundef zeroext i1 @_ZN4llvm11isa_impl_clINS_8ConstantEPKNS_5ValueEE4doitES4_(ptr noundef %4)
  ret i1 %5
}

; Function Attrs: mustprogress nounwind uwtable
define linkonce_odr hidden noundef zeroext i1 @_ZN4llvm13isa_impl_wrapINS_8ConstantEKPKNS_5ValueES4_E4doitERS5_(ptr noundef nonnull align 8 dereferenceable(8) %0) #1 comdat align 2 {
  %2 = alloca ptr, align 8
  %3 = alloca ptr, align 8
  store ptr %0, ptr %2, align 8
  %4 = load ptr, ptr %2, align 8
  %5 = call noundef ptr @_ZN4llvm13simplify_typeIKPKNS_5ValueEE18getSimplifiedValueERS4_(ptr noundef nonnull align 8 dereferenceable(8) %4)
  store ptr %5, ptr %3, align 8
  %6 = call noundef zeroext i1 @_ZN4llvm13isa_impl_wrapINS_8ConstantEPKNS_5ValueES4_E4doitERKS4_(ptr noundef nonnull align 8 dereferenceable(8) %3)
  ret i1 %6
}

; Function Attrs: mustprogress nounwind uwtable
define linkonce_odr hidden noundef nonnull align 8 dereferenceable(8) ptr @_ZN4llvm13simplify_typeIPKNS_5ValueEE18getSimplifiedValueERS3_(ptr noundef nonnull align 8 dereferenceable(8) %0) #1 comdat align 2 {
  %2 = alloca ptr, align 8
  store ptr %0, ptr %2, align 8
  %3 = load ptr, ptr %2, align 8
  ret ptr %3
}

; Function Attrs: mustprogress nounwind uwtable
define linkonce_odr hidden noundef ptr @_ZN4llvm16cast_convert_valINS_8ConstantEPKNS_5ValueES4_E4doitES4_(ptr noundef %0) #1 comdat align 2 {
  %2 = alloca ptr, align 8
  store ptr %0, ptr %2, align 8
  %3 = load ptr, ptr %2, align 8
  ret ptr %3
}

; Function Attrs: mustprogress nounwind uwtable
define linkonce_odr hidden noundef zeroext i1 @_ZN4llvm14CastIsPossibleINS_8ConstantEPKNS_5ValueEvE10isPossibleERKS4_(ptr noundef nonnull align 8 dereferenceable(8) %0) #1 comdat align 2 {
  %2 = alloca ptr, align 8
  store ptr %0, ptr %2, align 8
  %3 = load ptr, ptr %2, align 8
  %4 = call noundef zeroext i1 @_ZN4llvm13isa_impl_wrapINS_8ConstantEKPKNS_5ValueES4_E4doitERS5_(ptr noundef nonnull align 8 dereferenceable(8) %3)
  ret i1 %4
}

; Function Attrs: mustprogress nounwind uwtable
define linkonce_odr hidden noundef ptr @_ZN4llvm13simplify_typeIKPKNS_5ValueEE18getSimplifiedValueERS4_(ptr noundef nonnull align 8 dereferenceable(8) %0) #1 comdat align 2 {
  %2 = alloca ptr, align 8
  store ptr %0, ptr %2, align 8
  %3 = load ptr, ptr %2, align 8
  %4 = call noundef nonnull align 8 dereferenceable(8) ptr @_ZN4llvm13simplify_typeIPKNS_5ValueEE18getSimplifiedValueERS3_(ptr noundef nonnull align 8 dereferenceable(8) %3)
  %5 = load ptr, ptr %4, align 8
  ret ptr %5
}

; Function Attrs: mustprogress nounwind uwtable
define linkonce_odr hidden noundef ptr @_ZN4llvm8CastInfoINS_8ConstantEPKNS_5ValueEvE6doCastERKS4_(ptr noundef nonnull align 8 dereferenceable(8) %0) #1 comdat align 2 {
  %2 = alloca ptr, align 8
  store ptr %0, ptr %2, align 8
  %3 = load ptr, ptr %2, align 8
  %4 = load ptr, ptr %3, align 8
  %5 = call noundef ptr @_ZN4llvm16cast_convert_valINS_8ConstantEPKNS_5ValueES4_E4doitES4_(ptr noundef %4)
  ret ptr %5
}

; Function Attrs: mustprogress nounwind uwtable
define linkonce_odr hidden noundef zeroext i1 @_ZN4llvm8CastInfoINS_8ConstantEKPKNS_5ValueEvE10isPossibleERS5_(ptr noundef nonnull align 8 dereferenceable(8) %0) #1 comdat align 2 {
  %2 = alloca ptr, align 8
  %3 = alloca ptr, align 8
  store ptr %0, ptr %2, align 8
  %4 = load ptr, ptr %2, align 8
  %5 = call noundef ptr @_ZN4llvm13simplify_typeIKPKNS_5ValueEE18getSimplifiedValueERS4_(ptr noundef nonnull align 8 dereferenceable(8) %4)
  store ptr %5, ptr %3, align 8
  %6 = call noundef zeroext i1 @_ZN4llvm14CastIsPossibleINS_8ConstantEPKNS_5ValueEvE10isPossibleERKS4_(ptr noundef nonnull align 8 dereferenceable(8) %3)
  ret i1 %6
}

; Function Attrs: mustprogress nounwind uwtable
define linkonce_odr hidden noundef ptr @_ZN4llvm4castINS_8ConstantEKNS_5ValueEEEDcPT0_(ptr noundef %0) #1 comdat {
  %2 = alloca ptr, align 8
  store ptr %0, ptr %2, align 8
  %3 = call noundef ptr @_ZN4llvm8CastInfoINS_8ConstantEPKNS_5ValueEvE6doCastERKS4_(ptr noundef nonnull align 8 dereferenceable(8) %2)
  ret ptr %3
}

; Function Attrs: mustprogress nounwind uwtable
define linkonce_odr hidden noundef zeroext i1 @_ZN4llvm3isaINS_8ConstantEPKNS_5ValueEEEbRKT0_(ptr noundef nonnull align 8 dereferenceable(8) %0) #1 comdat {
  %2 = alloca ptr, align 8
  store ptr %0, ptr %2, align 8
  %3 = load ptr, ptr %2, align 8
  %4 = call noundef zeroext i1 @_ZN4llvm8CastInfoINS_8ConstantEKPKNS_5ValueEvE10isPossibleERS5_(ptr noundef nonnull align 8 dereferenceable(8) %3)
  ret i1 %4
}

; Function Attrs: mustprogress nounwind uwtable
define linkonce_odr hidden noundef nonnull align 8 dereferenceable(89) ptr @_ZNKSt6vectorIN4llvm8SwitchCG9CaseBlockESaIS2_EEixEm(ptr noundef nonnull align 8 dereferenceable(24) %0, i64 noundef %1) #1 comdat align 2 {
  %3 = alloca ptr, align 8
  %4 = alloca i64, align 8
  store ptr %0, ptr %3, align 8
  store i64 %1, ptr %4, align 8
  %5 = load ptr, ptr %3, align 8
  %6 = getelementptr inbounds nuw %"struct.std::_Vector_base.428", ptr %5, i32 0, i32 0
  %7 = getelementptr inbounds nuw %"struct.std::_Vector_base<llvm::SwitchCG::CaseBlock, std::allocator<llvm::SwitchCG::CaseBlock>>::_Vector_impl_data", ptr %6, i32 0, i32 0
  %8 = load ptr, ptr %7, align 8
  %9 = load i64, ptr %4, align 8
  %10 = getelementptr inbounds %"struct.llvm::SwitchCG::CaseBlock", ptr %8, i64 %9
  ret ptr %10
}

; Function Attrs: mustprogress nounwind uwtable
define linkonce_odr hidden noundef i64 @_ZNKSt6vectorIN4llvm8SwitchCG9CaseBlockESaIS2_EE4sizeEv(ptr noundef nonnull align 8 dereferenceable(24) %0) #1 comdat align 2 {
  %2 = alloca ptr, align 8
  store ptr %0, ptr %2, align 8
  %3 = load ptr, ptr %2, align 8
  %4 = getelementptr inbounds nuw %"struct.std::_Vector_base.428", ptr %3, i32 0, i32 0
  %5 = getelementptr inbounds nuw %"struct.std::_Vector_base<llvm::SwitchCG::CaseBlock, std::allocator<llvm::SwitchCG::CaseBlock>>::_Vector_impl_data", ptr %4, i32 0, i32 1
  %6 = load ptr, ptr %5, align 8
  %7 = getelementptr inbounds nuw %"struct.std::_Vector_base.428", ptr %3, i32 0, i32 0
  %8 = getelementptr inbounds nuw %"struct.std::_Vector_base<llvm::SwitchCG::CaseBlock, std::allocator<llvm::SwitchCG::CaseBlock>>::_Vector_impl_data", ptr %7, i32 0, i32 0
  %9 = load ptr, ptr %8, align 8
  %10 = ptrtoint ptr %6 to i64
  %11 = ptrtoint ptr %9 to i64
  %12 = sub i64 %10, %11
  %13 = sdiv exact i64 %12, 96
  ret i64 %13
}

; Function Attrs: mustprogress nounwind uwtable
define dso_local noundef zeroext i1 @_ZN4llvm12IRTranslator20shouldEmitAsBranchesERKSt6vectorINS_8SwitchCG9CaseBlockESaIS3_EE(ptr noundef nonnull align 8 dereferenceable(1848) %0, ptr noundef nonnull align 8 dereferenceable(24) %1) #1 align 2 {
  %3 = alloca i1, align 1
  %4 = alloca ptr, align 8
  %5 = alloca ptr, align 8
  store ptr %0, ptr %4, align 8
  store ptr %1, ptr %5, align 8
  %6 = load ptr, ptr %5, align 8
  %7 = call noundef i64 @_ZNKSt6vectorIN4llvm8SwitchCG9CaseBlockESaIS2_EE4sizeEv(ptr noundef nonnull align 8 dereferenceable(24) %6) #2
  %8 = icmp ne i64 %7, 2
  br i1 %8, label %9, label %10

9:                                                ; preds = %2
  store i1 true, ptr %3, align 1
  br label %123

10:                                               ; preds = %2
  %11 = load ptr, ptr %5, align 8
  %12 = call noundef nonnull align 8 dereferenceable(89) ptr @_ZNKSt6vectorIN4llvm8SwitchCG9CaseBlockESaIS2_EEixEm(ptr noundef nonnull align 8 dereferenceable(24) %11, i64 noundef 0) #2
  %13 = getelementptr inbounds nuw %"struct.llvm::SwitchCG::CaseBlock", ptr %12, i32 0, i32 1
  %14 = load ptr, ptr %13, align 8
  %15 = load ptr, ptr %5, align 8
  %16 = call noundef nonnull align 8 dereferenceable(89) ptr @_ZNKSt6vectorIN4llvm8SwitchCG9CaseBlockESaIS2_EEixEm(ptr noundef nonnull align 8 dereferenceable(24) %15, i64 noundef 1) #2
  %17 = getelementptr inbounds nuw %"struct.llvm::SwitchCG::CaseBlock", ptr %16, i32 0, i32 1
  %18 = load ptr, ptr %17, align 8
  %19 = icmp eq ptr %14, %18
  br i1 %19, label %20, label %30

20:                                               ; preds = %10
  %21 = load ptr, ptr %5, align 8
  %22 = call noundef nonnull align 8 dereferenceable(89) ptr @_ZNKSt6vectorIN4llvm8SwitchCG9CaseBlockESaIS2_EEixEm(ptr noundef nonnull align 8 dereferenceable(24) %21, i64 noundef 0) #2
  %23 = getelementptr inbounds nuw %"struct.llvm::SwitchCG::CaseBlock", ptr %22, i32 0, i32 3
  %24 = load ptr, ptr %23, align 8
  %25 = load ptr, ptr %5, align 8
  %26 = call noundef nonnull align 8 dereferenceable(89) ptr @_ZNKSt6vectorIN4llvm8SwitchCG9CaseBlockESaIS2_EEixEm(ptr noundef nonnull align 8 dereferenceable(24) %25, i64 noundef 1) #2
  %27 = getelementptr inbounds nuw %"struct.llvm::SwitchCG::CaseBlock", ptr %26, i32 0, i32 3
  %28 = load ptr, ptr %27, align 8
  %29 = icmp eq ptr %24, %28
  br i1 %29, label %50, label %30

30:                                               ; preds = %20, %10
  %31 = load ptr, ptr %5, align 8
  %32 = call noundef nonnull align 8 dereferenceable(89) ptr @_ZNKSt6vectorIN4llvm8SwitchCG9CaseBlockESaIS2_EEixEm(ptr noundef nonnull align 8 dereferenceable(24) %31, i64 noundef 0) #2
  %33 = getelementptr inbounds nuw %"struct.llvm::SwitchCG::CaseBlock", ptr %32, i32 0, i32 3
  %34 = load ptr, ptr %33, align 8
  %35 = load ptr, ptr %5, align 8
  %36 = call noundef nonnull align 8 dereferenceable(89) ptr @_ZNKSt6vectorIN4llvm8SwitchCG9CaseBlockESaIS2_EEixEm(ptr noundef nonnull align 8 dereferenceable(24) %35, i64 noundef 1) #2
  %37 = getelementptr inbounds nuw %"struct.llvm::SwitchCG::CaseBlock", ptr %36, i32 0, i32 1
  %38 = load ptr, ptr %37, align 8
  %39 = icmp eq ptr %34, %38
  br i1 %39, label %40, label %51

40:                                               ; preds = %30
  %41 = load ptr, ptr %5, align 8
  %42 = call noundef nonnull align 8 dereferenceable(89) ptr @_ZNKSt6vectorIN4llvm8SwitchCG9CaseBlockESaIS2_EEixEm(ptr noundef nonnull align 8 dereferenceable(24) %41, i64 noundef 0) #2
  %43 = getelementptr inbounds nuw %"struct.llvm::SwitchCG::CaseBlock", ptr %42, i32 0, i32 1
  %44 = load ptr, ptr %43, align 8
  %45 = load ptr, ptr %5, align 8
  %46 = call noundef nonnull align 8 dereferenceable(89) ptr @_ZNKSt6vectorIN4llvm8SwitchCG9CaseBlockESaIS2_EEixEm(ptr noundef nonnull align 8 dereferenceable(24) %45, i64 noundef 1) #2
  %47 = getelementptr inbounds nuw %"struct.llvm::SwitchCG::CaseBlock", ptr %46, i32 0, i32 3
  %48 = load ptr, ptr %47, align 8
  %49 = icmp eq ptr %44, %48
  br i1 %49, label %50, label %51

50:                                               ; preds = %40, %20
  store i1 false, ptr %3, align 1
  br label %123

51:                                               ; preds = %40, %30
  %52 = load ptr, ptr %5, align 8
  %53 = call noundef nonnull align 8 dereferenceable(89) ptr @_ZNKSt6vectorIN4llvm8SwitchCG9CaseBlockESaIS2_EEixEm(ptr noundef nonnull align 8 dereferenceable(24) %52, i64 noundef 0) #2
  %54 = getelementptr inbounds nuw %"struct.llvm::SwitchCG::CaseBlock", ptr %53, i32 0, i32 3
  %55 = load ptr, ptr %54, align 8
  %56 = load ptr, ptr %5, align 8
  %57 = call noundef nonnull align 8 dereferenceable(89) ptr @_ZNKSt6vectorIN4llvm8SwitchCG9CaseBlockESaIS2_EEixEm(ptr noundef nonnull align 8 dereferenceable(24) %56, i64 noundef 1) #2
  %58 = getelementptr inbounds nuw %"struct.llvm::SwitchCG::CaseBlock", ptr %57, i32 0, i32 3
  %59 = load ptr, ptr %58, align 8
  %60 = icmp eq ptr %55, %59
  br i1 %60, label %61, label %122

61:                                               ; preds = %51
  %62 = load ptr, ptr %5, align 8
  %63 = call noundef nonnull align 8 dereferenceable(89) ptr @_ZNKSt6vectorIN4llvm8SwitchCG9CaseBlockESaIS2_EEixEm(ptr noundef nonnull align 8 dereferenceable(24) %62, i64 noundef 0) #2
  %64 = getelementptr inbounds nuw %"struct.llvm::SwitchCG::CaseBlock", ptr %63, i32 0, i32 0
  %65 = getelementptr inbounds nuw %"struct.llvm::SwitchCG::CaseBlock::PredInfoPair", ptr %64, i32 0, i32 0
  %66 = load i32, ptr %65, align 8
  %67 = load ptr, ptr %5, align 8
  %68 = call noundef nonnull align 8 dereferenceable(89) ptr @_ZNKSt6vectorIN4llvm8SwitchCG9CaseBlockESaIS2_EEixEm(ptr noundef nonnull align 8 dereferenceable(24) %67, i64 noundef 1) #2
  %69 = getelementptr inbounds nuw %"struct.llvm::SwitchCG::CaseBlock", ptr %68, i32 0, i32 0
  %70 = getelementptr inbounds nuw %"struct.llvm::SwitchCG::CaseBlock::PredInfoPair", ptr %69, i32 0, i32 0
  %71 = load i32, ptr %70, align 8
  %72 = icmp eq i32 %66, %71
  br i1 %72, label %73, label %122

73:                                               ; preds = %61
  %74 = load ptr, ptr %5, align 8
  %75 = call noundef nonnull align 8 dereferenceable(89) ptr @_ZNKSt6vectorIN4llvm8SwitchCG9CaseBlockESaIS2_EEixEm(ptr noundef nonnull align 8 dereferenceable(24) %74, i64 noundef 0) #2
  %76 = getelementptr inbounds nuw %"struct.llvm::SwitchCG::CaseBlock", ptr %75, i32 0, i32 3
  %77 = call noundef zeroext i1 @_ZN4llvm3isaINS_8ConstantEPKNS_5ValueEEEbRKT0_(ptr noundef nonnull align 8 dereferenceable(8) %76)
  br i1 %77, label %78, label %122

78:                                               ; preds = %73
  %79 = load ptr, ptr %5, align 8
  %80 = call noundef nonnull align 8 dereferenceable(89) ptr @_ZNKSt6vectorIN4llvm8SwitchCG9CaseBlockESaIS2_EEixEm(ptr noundef nonnull align 8 dereferenceable(24) %79, i64 noundef 0) #2
  %81 = getelementptr inbounds nuw %"struct.llvm::SwitchCG::CaseBlock", ptr %80, i32 0, i32 3
  %82 = load ptr, ptr %81, align 8
  %83 = call noundef ptr @_ZN4llvm4castINS_8ConstantEKNS_5ValueEEEDcPT0_(ptr noundef %82)
  %84 = call noundef zeroext i1 @_ZNK4llvm8Constant11isNullValueEv(ptr noundef nonnull align 8 dereferenceable(24) %83)
  br i1 %84, label %85, label %122

85:                                               ; preds = %78
  %86 = load ptr, ptr %5, align 8
  %87 = call noundef nonnull align 8 dereferenceable(89) ptr @_ZNKSt6vectorIN4llvm8SwitchCG9CaseBlockESaIS2_EEixEm(ptr noundef nonnull align 8 dereferenceable(24) %86, i64 noundef 0) #2
  %88 = getelementptr inbounds nuw %"struct.llvm::SwitchCG::CaseBlock", ptr %87, i32 0, i32 0
  %89 = getelementptr inbounds nuw %"struct.llvm::SwitchCG::CaseBlock::PredInfoPair", ptr %88, i32 0, i32 0
  %90 = load i32, ptr %89, align 8
  %91 = icmp eq i32 %90, 32
  br i1 %91, label %92, label %103

92:                                               ; preds = %85
  %93 = load ptr, ptr %5, align 8
  %94 = call noundef nonnull align 8 dereferenceable(89) ptr @_ZNKSt6vectorIN4llvm8SwitchCG9CaseBlockESaIS2_EEixEm(ptr noundef nonnull align 8 dereferenceable(24) %93, i64 noundef 0) #2
  %95 = getelementptr inbounds nuw %"struct.llvm::SwitchCG::CaseBlock", ptr %94, i32 0, i32 4
  %96 = load ptr, ptr %95, align 8
  %97 = load ptr, ptr %5, align 8
  %98 = call noundef nonnull align 8 dereferenceable(89) ptr @_ZNKSt6vectorIN4llvm8SwitchCG9CaseBlockESaIS2_EEixEm(ptr noundef nonnull align 8 dereferenceable(24) %97, i64 noundef 1) #2
  %99 = getelementptr inbounds nuw %"struct.llvm::SwitchCG::CaseBlock", ptr %98, i32 0, i32 6
  %100 = load ptr, ptr %99, align 8
  %101 = icmp eq ptr %96, %100
  br i1 %101, label %102, label %103

102:                                              ; preds = %92
  store i1 false, ptr %3, align 1
  br label %123

103:                                              ; preds = %92, %85
  %104 = load ptr, ptr %5, align 8
  %105 = call noundef nonnull align 8 dereferenceable(89) ptr @_ZNKSt6vectorIN4llvm8SwitchCG9CaseBlockESaIS2_EEixEm(ptr noundef nonnull align 8 dereferenceable(24) %104, i64 noundef 0) #2
  %106 = getelementptr inbounds nuw %"struct.llvm::SwitchCG::CaseBlock", ptr %105, i32 0, i32 0
  %107 = getelementptr inbounds nuw %"struct.llvm::SwitchCG::CaseBlock::PredInfoPair", ptr %106, i32 0, i32 0
  %108 = load i32, ptr %107, align 8
  %109 = icmp eq i32 %108, 33
  br i1 %109, label %110, label %121

110:                                              ; preds = %103
  %111 = load ptr, ptr %5, align 8
  %112 = call noundef nonnull align 8 dereferenceable(89) ptr @_ZNKSt6vectorIN4llvm8SwitchCG9CaseBlockESaIS2_EEixEm(ptr noundef nonnull align 8 dereferenceable(24) %111, i64 noundef 0) #2
  %113 = getelementptr inbounds nuw %"struct.llvm::SwitchCG::CaseBlock", ptr %112, i32 0, i32 5
  %114 = load ptr, ptr %113, align 8
  %115 = load ptr, ptr %5, align 8
  %116 = call noundef nonnull align 8 dereferenceable(89) ptr @_ZNKSt6vectorIN4llvm8SwitchCG9CaseBlockESaIS2_EEixEm(ptr noundef nonnull align 8 dereferenceable(24) %115, i64 noundef 1) #2
  %117 = getelementptr inbounds nuw %"struct.llvm::SwitchCG::CaseBlock", ptr %116, i32 0, i32 6
  %118 = load ptr, ptr %117, align 8
  %119 = icmp eq ptr %114, %118
  br i1 %119, label %120, label %121

120:                                              ; preds = %110
  store i1 false, ptr %3, align 1
  br label %123

121:                                              ; preds = %110, %103
  br label %122

122:                                              ; preds = %121, %78, %73, %61, %51
  store i1 true, ptr %3, align 1
  br label %123

123:                                              ; preds = %122, %120, %102, %50, %9
  %124 = load i1, ptr %3, align 1
  ret i1 %124
}