; Function Attrs: mustprogress nounwind uwtable
define dso_local noundef zeroext i1 @_ZN4llvm12IRTranslator20shouldEmitAsBranchesERKSt6vectorINS_8SwitchCG9CaseBlockESaIS3_EE(ptr nocapture noundef nonnull readnone align 8 dereferenceable(1848) %0, ptr nocapture noundef nonnull readonly align 8 dereferenceable(24) %1) local_unnamed_addr #0 align 2 {
  %3 = getelementptr inbounds nuw i8, ptr %1, i64 8
  %4 = load ptr, ptr %3, align 8
  %5 = load ptr, ptr %1, align 8
  %6 = ptrtoint ptr %4 to i64
  %7 = ptrtoint ptr %5 to i64
  %8 = sub i64 %6, %7
  %.not = icmp eq i64 %8, 192
  br i1 %.not, label %9, label %51

9:                                                ; preds = %2
  %10 = getelementptr inbounds nuw i8, ptr %5, i64 8
  %11 = load ptr, ptr %10, align 8
  %12 = getelementptr inbounds i8, ptr %5, i64 96
  %13 = getelementptr inbounds i8, ptr %5, i64 104
  %14 = load ptr, ptr %13, align 8
  %15 = icmp eq ptr %11, %14
  %16 = getelementptr inbounds nuw i8, ptr %5, i64 24
  %17 = load ptr, ptr %16, align 8
  br i1 %15, label %18, label %._crit_edge

18:                                               ; preds = %9
  %19 = getelementptr inbounds i8, ptr %5, i64 120
  %20 = load ptr, ptr %19, align 8
  %21 = icmp eq ptr %17, %20
  br i1 %21, label %51, label %._crit_edge

._crit_edge:                                      ; preds = %9, %18
  %22 = icmp eq ptr %17, %14
  %23 = getelementptr inbounds i8, ptr %5, i64 120
  %24 = load ptr, ptr %23, align 8
  %25 = icmp eq ptr %11, %24
  %or.cond = select i1 %22, i1 %25, i1 false
  br i1 %or.cond, label %51, label %._crit_edge22

._crit_edge22:                                    ; preds = %._crit_edge
  %26 = icmp eq ptr %17, %24
  br i1 %26, label %27, label %.thread

27:                                               ; preds = %._crit_edge22
  %28 = load i32, ptr %5, align 8
  %29 = load i32, ptr %12, align 8
  %30 = icmp eq i32 %28, %29
  br i1 %30, label %31, label %.thread

31:                                               ; preds = %27
  %32 = load i8, ptr %17, align 8
  %33 = icmp ult i8 %32, 22
  br i1 %33, label %34, label %.thread

34:                                               ; preds = %31
  %35 = tail call noundef zeroext i1 @_ZNK4llvm8Constant11isNullValueEv(ptr noundef nonnull align 8 dereferenceable(24) %17) #23
  br i1 %35, label %36, label %.thread

36:                                               ; preds = %34
  %37 = load ptr, ptr %1, align 8
  %38 = load i32, ptr %37, align 8
  switch i32 %38, label %.thread [
    i32 32, label %39
    i32 33, label %45
  ]

39:                                               ; preds = %36
  %40 = getelementptr inbounds nuw i8, ptr %37, i64 32
  %41 = load ptr, ptr %40, align 8
  %42 = getelementptr inbounds i8, ptr %37, i64 144
  %43 = load ptr, ptr %42, align 8
  %44 = icmp eq ptr %41, %43
  br i1 %44, label %51, label %.thread

45:                                               ; preds = %36
  %46 = getelementptr inbounds nuw i8, ptr %37, i64 40
  %47 = load ptr, ptr %46, align 8
  %48 = getelementptr inbounds i8, ptr %37, i64 144
  %49 = load ptr, ptr %48, align 8
  %50 = icmp eq ptr %47, %49
  br i1 %50, label %51, label %.thread

.thread:                                          ; preds = %36, %39, %45, %34, %31, %27, %._crit_edge22
  br label %51

51:                                               ; preds = %._crit_edge, %45, %39, %18, %2, %.thread
  %.0 = phi i1 [ true, %.thread ], [ true, %2 ], [ false, %18 ], [ false, %39 ], [ false, %45 ], [ false, %._crit_edge ]
  ret i1 %.0
}